target datalayout = "e-m:e-p270:32:32-p271:32:32-p272:64:64-i64:64-i128:128-f80:128-n8:16:32:64-S128"
target triple = "x86_64-pc-linux-gnu"

%"struct.std::__detail::_Hash_node_base" = type { ptr }
%"struct.std::__detail::_Prime_rehash_policy" = type { float, i64 }
%"class.std::__cxx11::basic_string" = type { %"struct.std::__cxx11::basic_string<char>::_Alloc_hider", i64, %union.anon.8 }
%"struct.std::__cxx11::basic_string<char>::_Alloc_hider" = type { ptr }
%union.anon.8 = type { i64, [8 x i8] }
%"class.std::basic_ostream" = type { ptr, %"class.std::basic_ios" }
%"class.std::basic_ios" = type { %"class.std::ios_base", ptr, i8, i8, ptr, ptr, ptr, ptr }
%"class.std::ios_base" = type { ptr, i64, i64, i32, i32, i32, ptr, %"struct.std::ios_base::_Words", [8 x %"struct.std::ios_base::_Words"], i32, ptr, %"class.std::locale" }
%"struct.std::ios_base::_Words" = type { ptr, i64 }
%"class.std::locale" = type { ptr }
%"struct.std::_Vector_base.1" = type { %"struct.std::_Vector_base<AstVar *, std::allocator<AstVar *>>::_Vector_impl" }
%"struct.std::_Vector_base<AstVar *, std::allocator<AstVar *>>::_Vector_impl" = type { %"struct.std::_Vector_base<AstVar *, std::allocator<AstVar *>>::_Vector_impl_data" }
%"struct.std::_Vector_base<AstVar *, std::allocator<AstVar *>>::_Vector_impl_data" = type { ptr, ptr, ptr }
%"struct.std::pair.91" = type <{ %"struct.std::__detail::_Node_iterator.93", i8, [7 x i8] }>
%"struct.std::__detail::_Node_iterator.93" = type { %"struct.std::__detail::_Node_iterator_base.94" }
%"struct.std::__detail::_Node_iterator_base.94" = type { ptr }
%class.V3HierBlockPlan = type { %"class.std::unordered_map.95" }
%"class.std::unordered_map.95" = type { %"class.std::_Hashtable.96" }
%"class.std::_Hashtable.96" = type { ptr, i64, %"struct.std::__detail::_Hash_node_base", i64, %"struct.std::__detail::_Prime_rehash_policy", ptr }
%"struct.std::pair.115" = type { ptr, ptr }
%"struct.std::__detail::_Hash_node_value_base.265" = type { %"struct.__gnu_cxx::__aligned_buffer.266" }
%"struct.__gnu_cxx::__aligned_buffer.266" = type { %"union.std::aligned_storage<16, 8>::type" }
%"union.std::aligned_storage<16, 8>::type" = type { [16 x i8] }

@.str.1 = private unnamed_addr constant [117 x i8] c"generated/home/dtcxzyw/WorkSpace/Projects/compilers/llvm-opt-benchmark/bench/verilator/verilator/src/V3HierBlock.cpp\00", align 1
@_ZSt4cout = external global %"class.std::basic_ostream", align 8
@.str.26 = private unnamed_addr constant [3 x i8] c"- \00", align 1
@.str.27 = private unnamed_addr constant [5 x i8] c"Add \00", align 1
@.str.28 = private unnamed_addr constant [7 x i8] c" with \00", align 1
@.str.29 = private unnamed_addr constant [12 x i8] c" parameters\00", align 1

; Function Attrs: mustprogress nounwind uwtable
define linkonce_odr dso_local noundef ptr @_ZN9__gnu_cxx16__aligned_bufferISt4pairIKPK13AstNodeModuleP11V3HierBlockEE7_M_addrEv(ptr noundef nonnull align 8 dereferenceable(16) %0) #5 comdat align 2 {
  %2 = alloca ptr, align 8
  store ptr %0, ptr %2, align 8
  %3 = load ptr, ptr %2, align 8
  %4 = getelementptr inbounds %"struct.__gnu_cxx::__aligned_buffer.266", ptr %3, i32 0, i32 0
  ret ptr %4
}

; Function Attrs: mustprogress nounwind uwtable
define linkonce_odr dso_local noundef ptr @_ZN9__gnu_cxx16__aligned_bufferISt4pairIKPK13AstNodeModuleP11V3HierBlockEE6_M_ptrEv(ptr noundef nonnull align 8 dereferenceable(16) %0) #5 comdat align 2 {
  %2 = alloca ptr, align 8
  store ptr %0, ptr %2, align 8
  %3 = load ptr, ptr %2, align 8
  %4 = call noundef ptr @_ZN9__gnu_cxx16__aligned_bufferISt4pairIKPK13AstNodeModuleP11V3HierBlockEE7_M_addrEv(ptr noundef nonnull align 8 dereferenceable(16) %3) #3
  ret ptr %4
}

; Function Attrs: mustprogress nounwind uwtable
define linkonce_odr dso_local noundef ptr @_ZNSt8__detail21_Hash_node_value_baseISt4pairIKPK13AstNodeModuleP11V3HierBlockEE9_M_valptrEv(ptr noundef nonnull align 8 dereferenceable(16) %0) #5 comdat align 2 {
  %2 = alloca ptr, align 8
  store ptr %0, ptr %2, align 8
  %3 = load ptr, ptr %2, align 8
  %4 = getelementptr inbounds %"struct.std::__detail::_Hash_node_value_base.265", ptr %3, i32 0, i32 0
  %5 = call noundef ptr @_ZN9__gnu_cxx16__aligned_bufferISt4pairIKPK13AstNodeModuleP11V3HierBlockEE6_M_ptrEv(ptr noundef nonnull align 8 dereferenceable(16) %4) #3
  ret ptr %5
}

; Function Attrs: mustprogress uwtable
define linkonce_odr dso_local { ptr, i8 } @_ZNSt10_HashtableIPK13AstNodeModuleSt4pairIKS2_P11V3HierBlockESaIS7_ENSt8__detail10_Select1stESt8equal_toIS2_ESt4hashIS2_ENS9_18_Mod_range_hashingENS9_20_Default_ranged_hashENS9_20_Prime_rehash_policyENS9_17_Hashtable_traitsILb0ELb0ELb1EEEE7emplaceIJRS2_DnEEES3_INS9_14_Node_iteratorIS7_Lb0ELb0EEEbEDpOT_(ptr noundef nonnull align 8 dereferenceable(56) %0, ptr noundef nonnull align 8 dereferenceable(8) %1, ptr noundef nonnull align 8 dereferenceable(8) %2) #4 comdat align 2 {
  %4 = alloca %"struct.std::pair.91", align 8
  %5 = alloca ptr, align 8
  %6 = alloca ptr, align 8
  %7 = alloca ptr, align 8
  store ptr %0, ptr %5, align 8
  store ptr %1, ptr %6, align 8
  store ptr %2, ptr %7, align 8
  %8 = load ptr, ptr %5, align 8
  %9 = load ptr, ptr %6, align 8
  %10 = load ptr, ptr %7, align 8
  %11 = call { ptr, i8 } @_ZNSt10_HashtableIPK13AstNodeModuleSt4pairIKS2_P11V3HierBlockESaIS7_ENSt8__detail10_Select1stESt8equal_toIS2_ESt4hashIS2_ENS9_18_Mod_range_hashingENS9_20_Default_ranged_hashENS9_20_Prime_rehash_policyENS9_17_Hashtable_traitsILb0ELb0ELb1EEEE10_M_emplaceIJRS2_DnEEES3_INS9_14_Node_iteratorIS7_Lb0ELb0EEEbESt17integral_constantIbLb1EEDpOT_(ptr noundef nonnull align 8 dereferenceable(56) %8, ptr noundef nonnull align 8 dereferenceable(8) %9, ptr noundef nonnull align 8 dereferenceable(8) %10)
  %12 = getelementptr inbounds { ptr, i8 }, ptr %4, i32 0, i32 0
  %13 = extractvalue { ptr, i8 } %11, 0
  store ptr %13, ptr %12, align 8
  %14 = getelementptr inbounds { ptr, i8 }, ptr %4, i32 0, i32 1
  %15 = extractvalue { ptr, i8 } %11, 1
  store i8 %15, ptr %14, align 8
  %16 = load { ptr, i8 }, ptr %4, align 8
  ret { ptr, i8 } %16
}

; Function Attrs: mustprogress nounwind uwtable
define linkonce_odr dso_local noundef ptr @_ZNKSt8__detail14_Node_iteratorISt4pairIKPK13AstNodeModuleP11V3HierBlockELb0ELb0EEptEv(ptr noundef nonnull align 8 dereferenceable(8) %0) #5 comdat align 2 {
  %2 = alloca ptr, align 8
  store ptr %0, ptr %2, align 8
  %3 = load ptr, ptr %2, align 8
  %4 = getelementptr inbounds %"struct.std::__detail::_Node_iterator_base.94", ptr %3, i32 0, i32 0
  %5 = load ptr, ptr %4, align 8
  %6 = getelementptr inbounds i8, ptr %5, i64 8
  %7 = call noundef ptr @_ZNSt8__detail21_Hash_node_value_baseISt4pairIKPK13AstNodeModuleP11V3HierBlockEE9_M_valptrEv(ptr noundef nonnull align 8 dereferenceable(16) %6) #3
  ret ptr %7
}

; Function Attrs: mustprogress nounwind uwtable
define linkonce_odr dso_local noundef i64 @_ZNKSt6vectorIP6AstVarSaIS1_EE4sizeEv(ptr noundef nonnull align 8 dereferenceable(24) %0) #5 comdat align 2 {
  %2 = alloca ptr, align 8
  store ptr %0, ptr %2, align 8
  %3 = load ptr, ptr %2, align 8
  %4 = getelementptr inbounds %"struct.std::_Vector_base.1", ptr %3, i32 0, i32 0
  %5 = getelementptr inbounds %"struct.std::_Vector_base<AstVar *, std::allocator<AstVar *>>::_Vector_impl_data", ptr %4, i32 0, i32 1
  %6 = load ptr, ptr %5, align 8
  %7 = getelementptr inbounds %"struct.std::_Vector_base.1", ptr %3, i32 0, i32 0
  %8 = getelementptr inbounds %"struct.std::_Vector_base<AstVar *, std::allocator<AstVar *>>::_Vector_impl_data", ptr %7, i32 0, i32 0
  %9 = load ptr, ptr %8, align 8
  %10 = ptrtoint ptr %6 to i64
  %11 = ptrtoint ptr %9 to i64
  %12 = sub i64 %10, %11
  %13 = sdiv exact i64 %12, 8
  ret i64 %13
}

; Function Attrs: mustprogress uwtable
define linkonce_odr dso_local void @_ZNK7AstNode11prettyNameQB5cxx11Ev(ptr dead_on_unwind noalias writable sret(%"class.std::__cxx11::basic_string") align 8 %0, ptr noundef nonnull align 8 dereferenceable(152) %1) #4 comdat align 2 personality ptr @__gxx_personality_v0 {
  %3 = alloca ptr, align 8
  %4 = alloca ptr, align 8
  %5 = alloca %"class.std::__cxx11::basic_string", align 8
  %6 = alloca ptr, align 8
  %7 = alloca i32, align 4
  store ptr %0, ptr %3, align 8
  store ptr %1, ptr %4, align 8
  %8 = load ptr, ptr %4, align 8
  %9 = load ptr, ptr %8, align 8
  %10 = getelementptr inbounds ptr, ptr %9, i64 7
  %11 = load ptr, ptr %10, align 8
  call void %11(ptr dead_on_unwind writable sret(%"class.std::__cxx11::basic_string") align 8 %5, ptr noundef nonnull align 8 dereferenceable(152) %8)
  invoke void @_ZN7AstNode11prettyNameQERKNSt7__cxx1112basic_stringIcSt11char_traitsIcESaIcEEE(ptr dead_on_unwind writable sret(%"class.std::__cxx11::basic_string") align 8 %0, ptr noundef nonnull align 8 dereferenceable(32) %5)
          to label %12 unwind label %13

12:                                               ; preds = %2
  call void @_ZNSt7__cxx1112basic_stringIcSt11char_traitsIcESaIcEED1Ev(ptr noundef nonnull align 8 dereferenceable(32) %5) #3
  ret void

13:                                               ; preds = %2
  %14 = landingpad { ptr, i32 }
          cleanup
  %15 = extractvalue { ptr, i32 } %14, 0
  store ptr %15, ptr %6, align 8
  %16 = extractvalue { ptr, i32 } %14, 1
  store i32 %16, ptr %7, align 4
  call void @_ZNSt7__cxx1112basic_stringIcSt11char_traitsIcESaIcEED1Ev(ptr noundef nonnull align 8 dereferenceable(32) %5) #3
  br label %17

17:                                               ; preds = %13
  %18 = load ptr, ptr %6, align 8
  %19 = load i32, ptr %7, align 4
  %20 = insertvalue { ptr, i32 } poison, ptr %18, 0
  %21 = insertvalue { ptr, i32 } %20, i32 %19, 1
  resume { ptr, i32 } %21
}

; Function Attrs: mustprogress uwtable
define linkonce_odr dso_local { ptr, i8 } @_ZNSt13unordered_mapIPK13AstNodeModuleP11V3HierBlockSt4hashIS2_ESt8equal_toIS2_ESaISt4pairIKS2_S4_EEE7emplaceIJRS2_DnEEES9_INSt8__detail14_Node_iteratorISB_Lb0ELb0EEEbEDpOT_(ptr noundef nonnull align 8 dereferenceable(56) %0, ptr noundef nonnull align 8 dereferenceable(8) %1, ptr noundef nonnull align 8 dereferenceable(8) %2) #4 comdat align 2 {
  %4 = alloca %"struct.std::pair.91", align 8
  %5 = alloca ptr, align 8
  %6 = alloca ptr, align 8
  %7 = alloca ptr, align 8
  store ptr %0, ptr %5, align 8
  store ptr %1, ptr %6, align 8
  store ptr %2, ptr %7, align 8
  %8 = load ptr, ptr %5, align 8
  %9 = getelementptr inbounds %"class.std::unordered_map.95", ptr %8, i32 0, i32 0
  %10 = load ptr, ptr %6, align 8
  %11 = load ptr, ptr %7, align 8
  %12 = call { ptr, i8 } @_ZNSt10_HashtableIPK13AstNodeModuleSt4pairIKS2_P11V3HierBlockESaIS7_ENSt8__detail10_Select1stESt8equal_toIS2_ESt4hashIS2_ENS9_18_Mod_range_hashingENS9_20_Default_ranged_hashENS9_20_Prime_rehash_policyENS9_17_Hashtable_traitsILb0ELb0ELb1EEEE7emplaceIJRS2_DnEEES3_INS9_14_Node_iteratorIS7_Lb0ELb0EEEbEDpOT_(ptr noundef nonnull align 8 dereferenceable(56) %9, ptr noundef nonnull align 8 dereferenceable(8) %10, ptr noundef nonnull align 8 dereferenceable(8) %11)
  %13 = getelementptr inbounds { ptr, i8 }, ptr %4, i32 0, i32 0
  %14 = extractvalue { ptr, i8 } %12, 0
  store ptr %14, ptr %13, align 8
  %15 = getelementptr inbounds { ptr, i8 }, ptr %4, i32 0, i32 1
  %16 = extractvalue { ptr, i8 } %12, 1
  store i8 %16, ptr %15, align 8
  %17 = load { ptr, i8 }, ptr %4, align 8
  ret { ptr, i8 } %17
}

; Function Attrs: mustprogress uwtable
define dso_local void @_ZN15V3HierBlockPlan3addEPK13AstNodeModuleRKSt6vectorIP6AstVarSaIS5_EE(ptr noundef nonnull align 8 dereferenceable(56) %0, ptr noundef %1, ptr noundef nonnull align 8 dereferenceable(24) %2) #4 align 2 personality ptr @__gxx_personality_v0 {
  %4 = alloca ptr, align 8
  %5 = alloca ptr, align 8
  %6 = alloca ptr, align 8
  %7 = alloca %"struct.std::pair.91", align 8
  %8 = alloca ptr, align 8
  %9 = alloca ptr, align 8
  %10 = alloca ptr, align 8
  %11 = alloca i32, align 4
  %12 = alloca %"class.std::__cxx11::basic_string", align 8
  %13 = alloca %"class.std::__cxx11::basic_string", align 8
  store ptr %0, ptr %4, align 8
  store ptr %1, ptr %5, align 8
  store ptr %2, ptr %6, align 8
  %14 = load ptr, ptr %4, align 8
  %15 = getelementptr inbounds %class.V3HierBlockPlan, ptr %14, i32 0, i32 0
  store ptr null, ptr %8, align 8
  %16 = call { ptr, i8 } @_ZNSt13unordered_mapIPK13AstNodeModuleP11V3HierBlockSt4hashIS2_ESt8equal_toIS2_ESaISt4pairIKS2_S4_EEE7emplaceIJRS2_DnEEES9_INSt8__detail14_Node_iteratorISB_Lb0ELb0EEEbEDpOT_(ptr noundef nonnull align 8 dereferenceable(56) %15, ptr noundef nonnull align 8 dereferenceable(8) %5, ptr noundef nonnull align 8 dereferenceable(8) %8)
  %17 = getelementptr inbounds { ptr, i8 }, ptr %7, i32 0, i32 0
  %18 = extractvalue { ptr, i8 } %16, 0
  store ptr %18, ptr %17, align 8
  %19 = getelementptr inbounds { ptr, i8 }, ptr %7, i32 0, i32 1
  %20 = extractvalue { ptr, i8 } %16, 1
  store i8 %20, ptr %19, align 8
  %21 = getelementptr inbounds %"struct.std::pair.91", ptr %7, i32 0, i32 1
  %22 = load i8, ptr %21, align 8
  %23 = trunc i8 %22 to i1
  br i1 %23, label %24, label %73

24:                                               ; preds = %3
  %25 = call noalias noundef nonnull ptr @_Znwm(i64 noundef 144) #17
  %26 = load ptr, ptr %5, align 8
  %27 = load ptr, ptr %6, align 8
  invoke void @_ZN11V3HierBlockC2EPK13AstNodeModuleRKSt6vectorIP6AstVarSaIS5_EE(ptr noundef nonnull align 8 dereferenceable(144) %25, ptr noundef %26, ptr noundef nonnull align 8 dereferenceable(24) %27)
          to label %28 unwind label %54

28:                                               ; preds = %24
  store ptr %25, ptr %9, align 8
  br label %29

29:                                               ; preds = %28
  %30 = call noundef i32 @_ZL5debugv()
  %31 = icmp sge i32 %30, 3
  %32 = xor i1 %31, true
  %33 = xor i1 %32, true
  br i1 %33, label %34, label %67

34:                                               ; preds = %29
  %35 = call noundef nonnull align 8 dereferenceable(8) ptr @_ZStlsISt11char_traitsIcEERSt13basic_ostreamIcT_ES5_PKc(ptr noundef nonnull align 8 dereferenceable(8) @_ZSt4cout, ptr noundef @.str.26)
  call void @_ZN7V3Error7lineStrB5cxx11EPKci(ptr dead_on_unwind writable sret(%"class.std::__cxx11::basic_string") align 8 %12, ptr noundef @.str.1, i32 noundef 313)
  %36 = invoke noundef nonnull align 8 dereferenceable(8) ptr @_ZStlsIcSt11char_traitsIcESaIcEERSt13basic_ostreamIT_T0_ES7_RKNSt7__cxx1112basic_stringIS4_S5_T1_EE(ptr noundef nonnull align 8 dereferenceable(8) %35, ptr noundef nonnull align 8 dereferenceable(32) %12)
          to label %37 unwind label %58

37:                                               ; preds = %34
  %38 = invoke noundef nonnull align 8 dereferenceable(8) ptr @_ZStlsISt11char_traitsIcEERSt13basic_ostreamIcT_ES5_PKc(ptr noundef nonnull align 8 dereferenceable(8) %36, ptr noundef @.str.27)
          to label %39 unwind label %58

39:                                               ; preds = %37
  %40 = load ptr, ptr %5, align 8
  invoke void @_ZNK7AstNode11prettyNameQB5cxx11Ev(ptr dead_on_unwind writable sret(%"class.std::__cxx11::basic_string") align 8 %13, ptr noundef nonnull align 8 dereferenceable(152) %40)
          to label %41 unwind label %58

41:                                               ; preds = %39
  %42 = invoke noundef nonnull align 8 dereferenceable(8) ptr @_ZStlsIcSt11char_traitsIcESaIcEERSt13basic_ostreamIT_T0_ES7_RKNSt7__cxx1112basic_stringIS4_S5_T1_EE(ptr noundef nonnull align 8 dereferenceable(8) %38, ptr noundef nonnull align 8 dereferenceable(32) %13)
          to label %43 unwind label %62

43:                                               ; preds = %41
  %44 = invoke noundef nonnull align 8 dereferenceable(8) ptr @_ZStlsISt11char_traitsIcEERSt13basic_ostreamIcT_ES5_PKc(ptr noundef nonnull align 8 dereferenceable(8) %42, ptr noundef @.str.28)
          to label %45 unwind label %62

45:                                               ; preds = %43
  %46 = load ptr, ptr %6, align 8
  %47 = call noundef i64 @_ZNKSt6vectorIP6AstVarSaIS1_EE4sizeEv(ptr noundef nonnull align 8 dereferenceable(24) %46) #3
  %48 = invoke noundef nonnull align 8 dereferenceable(8) ptr @_ZNSolsEm(ptr noundef nonnull align 8 dereferenceable(8) %44, i64 noundef %47)
          to label %49 unwind label %62

49:                                               ; preds = %45
  %50 = invoke noundef nonnull align 8 dereferenceable(8) ptr @_ZStlsISt11char_traitsIcEERSt13basic_ostreamIcT_ES5_PKc(ptr noundef nonnull align 8 dereferenceable(8) %48, ptr noundef @.str.29)
          to label %51 unwind label %62

51:                                               ; preds = %49
  %52 = invoke noundef nonnull align 8 dereferenceable(8) ptr @_ZNSolsEPFRSoS_E(ptr noundef nonnull align 8 dereferenceable(8) %50, ptr noundef @_ZSt4endlIcSt11char_traitsIcEERSt13basic_ostreamIT_T0_ES6_)
          to label %53 unwind label %62

53:                                               ; preds = %51
  call void @_ZNSt7__cxx1112basic_stringIcSt11char_traitsIcESaIcEED1Ev(ptr noundef nonnull align 8 dereferenceable(32) %13) #3
  call void @_ZNSt7__cxx1112basic_stringIcSt11char_traitsIcESaIcEED1Ev(ptr noundef nonnull align 8 dereferenceable(32) %12) #3
  br label %67

54:                                               ; preds = %24
  %55 = landingpad { ptr, i32 }
          cleanup
  %56 = extractvalue { ptr, i32 } %55, 0
  store ptr %56, ptr %10, align 8
  %57 = extractvalue { ptr, i32 } %55, 1
  store i32 %57, ptr %11, align 4
  call void @_ZdlPv(ptr noundef %25) #18
  br label %74

58:                                               ; preds = %39, %37, %34
  %59 = landingpad { ptr, i32 }
          cleanup
  %60 = extractvalue { ptr, i32 } %59, 0
  store ptr %60, ptr %10, align 8
  %61 = extractvalue { ptr, i32 } %59, 1
  store i32 %61, ptr %11, align 4
  br label %66

62:                                               ; preds = %51, %49, %45, %43, %41
  %63 = landingpad { ptr, i32 }
          cleanup
  %64 = extractvalue { ptr, i32 } %63, 0
  store ptr %64, ptr %10, align 8
  %65 = extractvalue { ptr, i32 } %63, 1
  store i32 %65, ptr %11, align 4
  call void @_ZNSt7__cxx1112basic_stringIcSt11char_traitsIcESaIcEED1Ev(ptr noundef nonnull align 8 dereferenceable(32) %13) #3
  br label %66

66:                                               ; preds = %62, %58
  call void @_ZNSt7__cxx1112basic_stringIcSt11char_traitsIcESaIcEED1Ev(ptr noundef nonnull align 8 dereferenceable(32) %12) #3
  br label %74

67:                                               ; preds = %53, %29
  br label %68

68:                                               ; preds = %67
  %69 = load ptr, ptr %9, align 8
  %70 = getelementptr inbounds %"struct.std::pair.91", ptr %7, i32 0, i32 0
  %71 = call noundef ptr @_ZNKSt8__detail14_Node_iteratorISt4pairIKPK13AstNodeModuleP11V3HierBlockELb0ELb0EEptEv(ptr noundef nonnull align 8 dereferenceable(8) %70) #3
  %72 = getelementptr inbounds %"struct.std::pair.115", ptr %71, i32 0, i32 1
  store ptr %69, ptr %72, align 8
  br label %73

73:                                               ; preds = %68, %3
  ret void

74:                                               ; preds = %66, %54
  %75 = load ptr, ptr %10, align 8
  %76 = load i32, ptr %11, align 4
  %77 = insertvalue { ptr, i32 } poison, ptr %75, 0
  %78 = insertvalue { ptr, i32 } %77, i32 %76, 1
  resume { ptr, i32 } %78
}