; Function Attrs: mustprogress uwtable
define dso_local void @_ZN15V3HierBlockPlan3addEPK13AstNodeModuleRKSt6vectorIP6AstVarSaIS5_EE(ptr noundef nonnull align 8 dereferenceable(56) %0, ptr noundef %1, ptr noundef nonnull align 8 dereferenceable(24) %2) #3 align 2 personality ptr @__gxx_personality_v0 {
  %4 = alloca %"class.std::__cxx11::basic_string", align 8
  %5 = alloca ptr, align 8
  %6 = alloca ptr, align 8
  %7 = alloca %"class.std::__cxx11::basic_string", align 8
  %8 = alloca %"class.std::__cxx11::basic_string", align 8
  store ptr %1, ptr %5, align 8
  store ptr null, ptr %6, align 8
  %9 = call { ptr, i8 } @_ZNSt10_HashtableIPK13AstNodeModuleSt4pairIKS2_P11V3HierBlockESaIS7_ENSt8__detail10_Select1stESt8equal_toIS2_ESt4hashIS2_ENS9_18_Mod_range_hashingENS9_20_Default_ranged_hashENS9_20_Prime_rehash_policyENS9_17_Hashtable_traitsILb0ELb0ELb1EEEE10_M_emplaceIJRS2_DnEEES3_INS9_14_Node_iteratorIS7_Lb0ELb0EEEbESt17integral_constantIbLb1EEDpOT_(ptr noundef nonnull align 8 dereferenceable(56) %0, ptr noundef nonnull align 8 dereferenceable(8) %5, ptr noundef nonnull align 8 dereferenceable(8) %6)
  %10 = extractvalue { ptr, i8 } %9, 0
  %11 = extractvalue { ptr, i8 } %9, 1
  %12 = and i8 %11, 1
  %.not = icmp eq i8 %12, 0
  br i1 %.not, label %57, label %13

13:                                               ; preds = %3
  %14 = call noalias noundef nonnull dereferenceable(144) ptr @_Znwm(i64 noundef 144) #20
  %15 = load ptr, ptr %5, align 8
  invoke void @_ZN11V3HierBlockC2EPK13AstNodeModuleRKSt6vectorIP6AstVarSaIS5_EE(ptr noundef nonnull align 8 dereferenceable(144) %14, ptr noundef %15, ptr noundef nonnull align 8 dereferenceable(24) %2)
          to label %16 unwind label %49

16:                                               ; preds = %13
  %17 = call noundef i32 @_ZL5debugv()
  %18 = icmp sgt i32 %17, 2
  br i1 %18, label %19, label %55

19:                                               ; preds = %16
  %20 = call noundef nonnull align 8 dereferenceable(8) ptr @_ZStlsISt11char_traitsIcEERSt13basic_ostreamIcT_ES5_PKc(ptr noundef nonnull align 8 dereferenceable(8) @_ZSt4cout, ptr noundef nonnull @.str.26)
  call void @_ZN7V3Error7lineStrB5cxx11EPKci(ptr dead_on_unwind nonnull writable sret(%"class.std::__cxx11::basic_string") align 8 %7, ptr noundef nonnull @.str.1, i32 noundef 313)
  %21 = invoke noundef nonnull align 8 dereferenceable(8) ptr @_ZStlsIcSt11char_traitsIcESaIcEERSt13basic_ostreamIT_T0_ES7_RKNSt7__cxx1112basic_stringIS4_S5_T1_EE(ptr noundef nonnull align 8 dereferenceable(8) %20, ptr noundef nonnull align 8 dereferenceable(32) %7)
          to label %22 unwind label %51

22:                                               ; preds = %19
  %23 = invoke noundef nonnull align 8 dereferenceable(8) ptr @_ZStlsISt11char_traitsIcEERSt13basic_ostreamIcT_ES5_PKc(ptr noundef nonnull align 8 dereferenceable(8) %21, ptr noundef nonnull @.str.27)
          to label %24 unwind label %51

24:                                               ; preds = %22
  %25 = load ptr, ptr %5, align 8
  call void @llvm.lifetime.start.p0(i64 32, ptr nonnull %4)
  %26 = load ptr, ptr %25, align 8, !noalias !41
  %27 = getelementptr inbounds i8, ptr %26, i64 56
  %28 = load ptr, ptr %27, align 8, !noalias !41
  invoke void %28(ptr dead_on_unwind nonnull writable sret(%"class.std::__cxx11::basic_string") align 8 %4, ptr noundef nonnull align 8 dereferenceable(152) %25)
          to label %.noexc unwind label %51

.noexc:                                           ; preds = %24
  invoke void @_ZN7AstNode11prettyNameQERKNSt7__cxx1112basic_stringIcSt11char_traitsIcESaIcEEE(ptr dead_on_unwind nonnull writable sret(%"class.std::__cxx11::basic_string") align 8 %8, ptr noundef nonnull align 8 dereferenceable(32) %4)
          to label %31 unwind label %29

29:                                               ; preds = %.noexc
  %30 = landingpad { ptr, i32 }
          cleanup
  call void @_ZNSt7__cxx1112basic_stringIcSt11char_traitsIcESaIcEED1Ev(ptr noundef nonnull align 8 dereferenceable(32) %4) #19
  br label %.body

31:                                               ; preds = %.noexc
  call void @_ZNSt7__cxx1112basic_stringIcSt11char_traitsIcESaIcEED1Ev(ptr noundef nonnull align 8 dereferenceable(32) %4) #19
  call void @llvm.lifetime.end.p0(i64 32, ptr nonnull %4)
  %32 = invoke noundef nonnull align 8 dereferenceable(8) ptr @_ZStlsIcSt11char_traitsIcESaIcEERSt13basic_ostreamIT_T0_ES7_RKNSt7__cxx1112basic_stringIS4_S5_T1_EE(ptr noundef nonnull align 8 dereferenceable(8) %23, ptr noundef nonnull align 8 dereferenceable(32) %8)
          to label %33 unwind label %53

33:                                               ; preds = %31
  %34 = invoke noundef nonnull align 8 dereferenceable(8) ptr @_ZStlsISt11char_traitsIcEERSt13basic_ostreamIcT_ES5_PKc(ptr noundef nonnull align 8 dereferenceable(8) %32, ptr noundef nonnull @.str.28)
          to label %35 unwind label %53

35:                                               ; preds = %33
  %36 = getelementptr inbounds i8, ptr %2, i64 8
  %37 = load ptr, ptr %36, align 8
  %38 = load ptr, ptr %2, align 8
  %39 = ptrtoint ptr %37 to i64
  %40 = ptrtoint ptr %38 to i64
  %41 = sub i64 %39, %40
  %42 = ashr exact i64 %41, 3
  %43 = invoke noundef nonnull align 8 dereferenceable(8) ptr @_ZNSolsEm(ptr noundef nonnull align 8 dereferenceable(8) %34, i64 noundef %42)
          to label %44 unwind label %53

44:                                               ; preds = %35
  %45 = invoke noundef nonnull align 8 dereferenceable(8) ptr @_ZStlsISt11char_traitsIcEERSt13basic_ostreamIcT_ES5_PKc(ptr noundef nonnull align 8 dereferenceable(8) %43, ptr noundef nonnull @.str.29)
          to label %46 unwind label %53

46:                                               ; preds = %44
  %47 = invoke noundef nonnull align 8 dereferenceable(8) ptr @_ZNSolsEPFRSoS_E(ptr noundef nonnull align 8 dereferenceable(8) %45, ptr noundef nonnull @_ZSt4endlIcSt11char_traitsIcEERSt13basic_ostreamIT_T0_ES6_)
          to label %48 unwind label %53

48:                                               ; preds = %46
  call void @_ZNSt7__cxx1112basic_stringIcSt11char_traitsIcESaIcEED1Ev(ptr noundef nonnull align 8 dereferenceable(32) %8) #19
  call void @_ZNSt7__cxx1112basic_stringIcSt11char_traitsIcESaIcEED1Ev(ptr noundef nonnull align 8 dereferenceable(32) %7) #19
  br label %55

49:                                               ; preds = %13
  %50 = landingpad { ptr, i32 }
          cleanup
  call void @_ZdlPv(ptr noundef nonnull %14) #22
  br label %58

51:                                               ; preds = %24, %22, %19
  %52 = landingpad { ptr, i32 }
          cleanup
  br label %.body

53:                                               ; preds = %46, %44, %35, %33, %31
  %54 = landingpad { ptr, i32 }
          cleanup
  call void @_ZNSt7__cxx1112basic_stringIcSt11char_traitsIcESaIcEED1Ev(ptr noundef nonnull align 8 dereferenceable(32) %8) #19
  br label %.body

.body:                                            ; preds = %51, %29, %53
  %.pn = phi { ptr, i32 } [ %54, %53 ], [ %52, %51 ], [ %30, %29 ]
  call void @_ZNSt7__cxx1112basic_stringIcSt11char_traitsIcESaIcEED1Ev(ptr noundef nonnull align 8 dereferenceable(32) %7) #19
  br label %58

55:                                               ; preds = %16, %48
  %56 = getelementptr inbounds i8, ptr %10, i64 16
  store ptr %14, ptr %56, align 8
  br label %57

57:                                               ; preds = %55, %3
  ret void

58:                                               ; preds = %.body, %49
  %.pn.pn = phi { ptr, i32 } [ %.pn, %.body ], [ %50, %49 ]
  resume { ptr, i32 } %.pn.pn
}